CCS PCH C Compiler, Version 5.115d, 1               30-ago.-23 16:13
Compiler operating in Evaluation Mode
To obtain a fully enabled compiler visit www.ccsinfo.com/products

               Filename:   C:\Users\victo\OneDrive\Documentos\X-TRAINER-hands-on\CCS\PIC18F\9-LED-RGB-CCS-PIC18F4550-45K50\Proyecto\PIC18F4550\LED RGB.lst

               ROM used:   264 bytes (1%)
                           Largest free fragment is 24308
               RAM used:   6 (0%) at main() level
                           7 (0%) worst case
               Stack used: 0 locations
               Stack size: 31

*
2000:  GOTO   20B4
.................... /************************************************************************************************
.................... Company:
.................... Microside Technology Inc.
.................... File Name:
.................... LED RGB.c
.................... Product Revision  :  1
.................... Device            :  X-TRAINER
.................... Driver Version    :  1.0
.................... ************************************************************************************************/
.................... 
.................... /*
.................... ---------------------------------------------------------------------------
.................... Esta práctica consiste en realizar un control PWM
.................... para el control de un LED RGB
.................... ---------------------------------------------------------------------------
.................... */
.................... 
.................... #include <18F4550.h>                           //Incluye el microcontrolador con el que se va a trabajar 
.................... //////////// Standard Header file for the PIC18F4550 device ////////////////
.................... ///////////////////////////////////////////////////////////////////////////
.................... ////        (C) Copyright 1996, 2020 Custom Computer Services          ////
.................... //// This source code may only be used by licensed users of the CCS C  ////
.................... //// compiler.  This source code may only be distributed to other      ////
.................... //// licensed users of the CCS C compiler.  No other use, reproduction ////
.................... //// or distribution is permitted without written permission.          ////
.................... //// Derivative programs created using this software in object code    ////
.................... //// form are not restricted in any way.                               ////
.................... ///////////////////////////////////////////////////////////////////////////
.................... #device PIC18F4550
.................... 
.................... #list
.................... 
.................... #use delay( clock=48Mhz, crystal )             //Tipo de oscilador y frecuencia dependiendo del microcontrolador 
*
2008:  CLRF   FEA
200A:  MOVLW  06
200C:  MOVWF  FE9
200E:  MOVF   FEF,W
2010:  BZ    202E
2012:  MOVLW  0F
2014:  MOVWF  01
2016:  CLRF   00
2018:  DECFSZ 00,F
201A:  BRA    2018
201C:  DECFSZ 01,F
201E:  BRA    2016
2020:  MOVLW  8F
2022:  MOVWF  00
2024:  DECFSZ 00,F
2026:  BRA    2024
2028:  NOP   
202A:  DECFSZ FEF,F
202C:  BRA    2012
202E:  RETURN 0
.................... #build( reset=0x02000,interrupt=0x02008 )      //Asignación de los vectores de reset e interrupción
.................... #org 0x0000,0x1FFF {}                          //Reserva espacio en la memoria para la versión con bootloader
.................... 
.................... #define LEDR PIN_B0                            //Pin donde está conectado el LED rojo
.................... #define LEDV PIN_B1                            //Pin donde está conectado el LED verde
.................... #define LEDA PIN_B2                            //Pin donde está conectado el LED azul
.................... 
.................... unsigned int16 Duty=0;                         //Variable para guardar el valor para PWM
.................... 
.................... void Set_PWM (void) {
.................... 
....................    for ( Duty = 1024; Duty > 0; Duty-- ) {     // Ciclo para disminuir el valor de la variable
2030:  MOVLW  04
2032:  MOVWF  05
2034:  CLRF   04
2036:  MOVF   04,F
2038:  BNZ   203E
203A:  MOVF   05,F
203C:  BZ    2074
....................       set_pwm1_duty (Duty);                    // Guarda la salida PWM en la variable
203E:  MOVFF  05,02
2042:  MOVFF  04,01
2046:  RRCF   02,F
2048:  RRCF   01,F
204A:  RRCF   02,F
204C:  RRCF   01,F
204E:  RRCF   02,F
2050:  MOVFF  01,FBE
2054:  RRCF   02,F
2056:  RRCF   02,W
2058:  ANDLW  30
205A:  MOVWF  00
205C:  MOVF   FBD,W
205E:  ANDLW  CF
2060:  IORWF  00,W
2062:  MOVWF  FBD
....................       delay_ms (5);                            // Retardo
2064:  MOVLW  05
2066:  MOVWF  06
2068:  RCALL  2008
206A:  MOVF   04,W
206C:  BTFSC  FD8.2
206E:  DECF   05,F
2070:  DECF   04,F
2072:  BRA    2036
....................    }
.................... 
....................    for ( Duty = 0; Duty < 1024; Duty++ ) {     // Ciclo para aumentar el valor de la variable
2074:  CLRF   05
2076:  CLRF   04
2078:  MOVF   05,W
207A:  SUBLW  03
207C:  BNC   20B2
....................       set_pwm1_duty (Duty);                    // Guarda la salida PWM en la variable
207E:  MOVFF  05,02
2082:  MOVFF  04,01
2086:  RRCF   02,F
2088:  RRCF   01,F
208A:  RRCF   02,F
208C:  RRCF   01,F
208E:  RRCF   02,F
2090:  MOVFF  01,FBE
2094:  RRCF   02,F
2096:  RRCF   02,W
2098:  ANDLW  30
209A:  MOVWF  00
209C:  MOVF   FBD,W
209E:  ANDLW  CF
20A0:  IORWF  00,W
20A2:  MOVWF  FBD
....................       delay_ms (5);                            // Retardo
20A4:  MOVLW  05
20A6:  MOVWF  06
20A8:  RCALL  2008
20AA:  INCF   04,F
20AC:  BTFSC  FD8.2
20AE:  INCF   05,F
20B0:  BRA    2078
....................    }
20B2:  RETURN 0
.................... }
.................... 
.................... void main ( void ) {
20B4:  CLRF   FF8
20B6:  BCF    FD0.7
20B8:  CLRF   05
20BA:  CLRF   04
20BC:  MOVF   FC1,W
20BE:  ANDLW  C0
20C0:  IORLW  0F
20C2:  MOVWF  FC1
20C4:  MOVLW  07
20C6:  MOVWF  FB4
....................    setup_timer_2 (T2_DIV_BY_16, 254, 1);       //Configura Timer2, periodo ajustado a 342uS
20C8:  MOVLW  00
20CA:  IORLW  06
20CC:  MOVWF  FCA
20CE:  MOVLW  FE
20D0:  MOVWF  FCB
....................    setup_ccp1 (CCP_PWM|CCP_SHUTDOWN_AC_L|CCP_SHUTDOWN_BD_L);  //Configura el módulo CCP para uso del PWM
20D2:  BCF    F94.2
20D4:  BCF    F8B.2
20D6:  MOVLW  0C
20D8:  MOVWF  FBD
20DA:  CLRF   FB7
20DC:  CLRF   FB6
.................... 
....................    while ( 1 ) {                               // Ciclo infinito
.................... 
....................       output_high( LEDR );
20DE:  BCF    F93.0
20E0:  BSF    F8A.0
....................       output_low( LEDV );
20E2:  BCF    F93.1
20E4:  BCF    F8A.1
....................       output_low( LEDA );
20E6:  BCF    F93.2
20E8:  BCF    F8A.2
.................... 
....................       Set_PWM ();                              // Convocamos la función
20EA:  RCALL  2030
.................... 
....................       output_low( LEDR );
20EC:  BCF    F93.0
20EE:  BCF    F8A.0
....................       output_high( LEDV );
20F0:  BCF    F93.1
20F2:  BSF    F8A.1
....................       output_low( LEDA );
20F4:  BCF    F93.2
20F6:  BCF    F8A.2
.................... 
....................       Set_PWM ();                              // Convocamos la función
20F8:  RCALL  2030
.................... 
....................       output_low( LEDR );
20FA:  BCF    F93.0
20FC:  BCF    F8A.0
....................       output_low( LEDV );
20FE:  BCF    F93.1
2100:  BCF    F8A.1
....................       output_high( LEDA );
2102:  BCF    F93.2
2104:  BSF    F8A.2
.................... 
....................       Set_PWM ();                              // Convocamos la función
2106:  RCALL  2030
2108:  BRA    20DE
.................... 
....................    }
.................... }
210A:  SLEEP 

Configuration Fuses:
   Word  1: CC07   PLL12 CPUDIV1 NOUSBDIV HS FCMEN IESO
   Word  2: 1E3E   PUT BROWNOUT BORV21 VREGEN NOWDT WDT32768
   Word  3: 8700   CCP2C1 PBADEN LPT1OSC MCLR
   Word  4: 00A1   STVREN NOLVP ICSP2 NOXINST NODEBUG
   Word  5: C00F   NOPROTECT NOCPB NOCPD
   Word  6: E00F   NOWRT NOWRTC NOWRTB NOWRTD
   Word  7: 400F   NOEBTR NOEBTRB
